; Function Attrs: mustprogress nounwind uwtable
define dso_local noundef zeroext i1 @_ZN4Luau28TypeFunctionReductionGuesser20isComparisonFunctionERKNS_24TypeFunctionInstanceTypeE(ptr noundef nonnull readnone align 8 captures(none) dereferenceable(176) %0, ptr noundef nonnull readonly align 8 captures(none) dereferenceable(224) %1) local_unnamed_addr #12 align 2 {
  %3 = load ptr, ptr %1, align 8, !tbaa !233
  %4 = tail call noundef i32 @_ZNKSt7__cxx1112basic_stringIcSt11char_traitsIcESaIcEE7compareEPKc(ptr noundef nonnull align 8 dereferenceable(32) %3, ptr noundef nonnull @.str.65) #28
  %5 = icmp eq i32 %4, 0
  br i1 %5, label %14, label %6

6:                                                ; preds = %2
  %7 = load ptr, ptr %1, align 8, !tbaa !233
  %8 = tail call noundef i32 @_ZNKSt7__cxx1112basic_stringIcSt11char_traitsIcESaIcEE7compareEPKc(ptr noundef nonnull align 8 dereferenceable(32) %7, ptr noundef nonnull @.str.66) #28
  %9 = icmp eq i32 %8, 0
  br i1 %9, label %14, label %10

10:                                               ; preds = %6
  %11 = load ptr, ptr %1, align 8, !tbaa !233
  %12 = tail call noundef i32 @_ZNKSt7__cxx1112basic_stringIcSt11char_traitsIcESaIcEE7compareEPKc(ptr noundef nonnull align 8 dereferenceable(32) %11, ptr noundef nonnull @.str.67) #28
  %13 = icmp eq i32 %12, 0
  br label %14

14:                                               ; preds = %10, %6, %2
  %15 = phi i1 [ true, %6 ], [ true, %2 ], [ %13, %10 ]
  ret i1 %15
}